target datalayout = "e-m:e-p270:32:32-p271:32:32-p272:64:64-i64:64-i128:128-f80:128-n8:16:32:64-S128"
target triple = "x86_64-pc-linux-gnu"

%"class.llvm::SmallVectorBase" = type { ptr, i32, i32 }
%"class.llvm::DbgValueLoc" = type <{ ptr, %"class.llvm::SmallVector.126", i8, [7 x i8] }>
%"class.llvm::SmallVector.126" = type { %"class.llvm::SmallVectorImpl.127", %"struct.llvm::SmallVectorStorage.130" }
%"class.llvm::SmallVectorImpl.127" = type { %"class.llvm::SmallVectorTemplateBase.128" }
%"class.llvm::SmallVectorTemplateBase.128" = type { %"class.llvm::SmallVectorTemplateCommon.129" }
%"class.llvm::SmallVectorTemplateCommon.129" = type { %"class.llvm::SmallVectorBase" }
%"struct.llvm::SmallVectorStorage.130" = type { [48 x i8] }
%"class.llvm::MachineLocation" = type { i8, i32 }
%"class.llvm::DbgValueLocEntry" = type { i32, %union.anon.1208, %union.anon.1209 }
%union.anon.1208 = type { i64 }
%union.anon.1209 = type { %"class.llvm::MachineLocation" }
%"class.llvm::ArrayRef.1207" = type { ptr, i64 }
%class.anon.1218 = type { ptr, ptr, ptr }
%class.anon.1221 = type { %class.anon.1218, ptr }

; Function Attrs: mustprogress nounwind uwtable
define linkonce_odr hidden noundef ptr @_ZNK4llvm25SmallVectorTemplateCommonINS_16DbgValueLocEntryEvE5beginEv(ptr noundef nonnull align 8 dereferenceable(16) %0) #1 comdat align 2 {
  %2 = alloca ptr, align 8
  store ptr %0, ptr %2, align 8
  %3 = load ptr, ptr %2, align 8
  %4 = getelementptr inbounds nuw %"class.llvm::SmallVectorBase", ptr %3, i32 0, i32 0
  %5 = load ptr, ptr %4, align 8
  ret ptr %5
}

; Function Attrs: mustprogress nounwind uwtable
define linkonce_odr hidden noundef ptr @_ZNK4llvm25SmallVectorTemplateCommonINS_16DbgValueLocEntryEvE4dataEv(ptr noundef nonnull align 8 dereferenceable(16) %0) #1 comdat align 2 {
  %2 = alloca ptr, align 8
  store ptr %0, ptr %2, align 8
  %3 = load ptr, ptr %2, align 8
  %4 = call noundef ptr @_ZNK4llvm25SmallVectorTemplateCommonINS_16DbgValueLocEntryEvE5beginEv(ptr noundef nonnull align 8 dereferenceable(16) %3)
  ret ptr %4
}

; Function Attrs: mustprogress nounwind uwtable
define linkonce_odr hidden void @_ZN4llvm8ArrayRefINS_16DbgValueLocEntryEEC2IvEERKNS_25SmallVectorTemplateCommonIS1_T_EE(ptr noundef nonnull align 8 dereferenceable(16) %0, ptr noundef nonnull align 8 dereferenceable(16) %1) unnamed_addr #1 comdat align 2 {
  %3 = alloca ptr, align 8
  %4 = alloca ptr, align 8
  store ptr %0, ptr %3, align 8
  store ptr %1, ptr %4, align 8
  %5 = load ptr, ptr %3, align 8
  %6 = getelementptr inbounds nuw %"class.llvm::ArrayRef.1207", ptr %5, i32 0, i32 0
  %7 = load ptr, ptr %4, align 8
  %8 = call noundef ptr @_ZNK4llvm25SmallVectorTemplateCommonINS_16DbgValueLocEntryEvE4dataEv(ptr noundef nonnull align 8 dereferenceable(16) %7)
  store ptr %8, ptr %6, align 8
  %9 = getelementptr inbounds nuw %"class.llvm::ArrayRef.1207", ptr %5, i32 0, i32 1
  %10 = load ptr, ptr %4, align 8
  %11 = call noundef i64 @_ZNK4llvm15SmallVectorBaseIjE4sizeEv(ptr noundef nonnull align 8 dereferenceable(16) %10)
  store i64 %11, ptr %9, align 8
  ret void
}

; Function Attrs: mustprogress nounwind uwtable
define linkonce_odr hidden noundef nonnull align 8 dereferenceable(24) ptr @_ZNK4llvm8ArrayRefINS_16DbgValueLocEntryEEixEm(ptr noundef nonnull align 8 dereferenceable(16) %0, i64 noundef %1) #1 comdat align 2 {
  %3 = alloca ptr, align 8
  %4 = alloca i64, align 8
  store ptr %0, ptr %3, align 8
  store i64 %1, ptr %4, align 8
  %5 = load ptr, ptr %3, align 8
  %6 = getelementptr inbounds nuw %"class.llvm::ArrayRef.1207", ptr %5, i32 0, i32 0
  %7 = load ptr, ptr %6, align 8
  %8 = load i64, ptr %4, align 8
  %9 = getelementptr inbounds %"class.llvm::DbgValueLocEntry", ptr %7, i64 %8
  ret ptr %9
}

; Function Attrs: mustprogress nounwind uwtable
define linkonce_odr hidden { ptr, i64 } @_ZNK4llvm11DbgValueLoc13getLocEntriesEv(ptr noundef nonnull align 8 dereferenceable(73) %0) #1 comdat align 2 {
  %2 = alloca %"class.llvm::ArrayRef.1207", align 8
  %3 = alloca ptr, align 8
  store ptr %0, ptr %3, align 8
  %4 = load ptr, ptr %3, align 8
  %5 = getelementptr inbounds nuw %"class.llvm::DbgValueLoc", ptr %4, i32 0, i32 1
  call void @_ZN4llvm8ArrayRefINS_16DbgValueLocEntryEEC2IvEERKNS_25SmallVectorTemplateCommonIS1_T_EE(ptr noundef nonnull align 8 dereferenceable(16) %2, ptr noundef nonnull align 8 dereferenceable(16) %5)
  %6 = load { ptr, i64 }, ptr %2, align 8
  ret { ptr, i64 } %6
}

; Function Attrs: mustprogress nounwind uwtable
define internal noundef zeroext i1 @"_ZZN4llvm10DwarfDebug17emitDebugLocValueERKNS_10AsmPrinterEPKNS_11DIBasicTypeERKNS_11DbgValueLocERNS_15DwarfExpressionEENK3$_2clEjRNS_18DIExpressionCursorE"(ptr noundef nonnull align 8 dereferenceable(32) %0, i32 noundef %1, ptr noundef nonnull align 8 dereferenceable(16) %2) #1 align 2 {
  %4 = alloca ptr, align 8
  %5 = alloca i32, align 4
  %6 = alloca ptr, align 8
  %7 = alloca %"class.llvm::ArrayRef.1207", align 8
  store ptr %0, ptr %4, align 8
  store i32 %1, ptr %5, align 4
  store ptr %2, ptr %6, align 8
  %8 = load ptr, ptr %4, align 8
  %9 = getelementptr inbounds nuw %class.anon.1221, ptr %8, i32 0, i32 0
  %10 = getelementptr inbounds nuw %class.anon.1221, ptr %8, i32 0, i32 1
  %11 = load ptr, ptr %10, align 8
  %12 = call { ptr, i64 } @_ZNK4llvm11DbgValueLoc13getLocEntriesEv(ptr noundef nonnull align 8 dereferenceable(73) %11)
  %13 = getelementptr inbounds nuw { ptr, i64 }, ptr %7, i32 0, i32 0
  %14 = extractvalue { ptr, i64 } %12, 0
  store ptr %14, ptr %13, align 8
  %15 = getelementptr inbounds nuw { ptr, i64 }, ptr %7, i32 0, i32 1
  %16 = extractvalue { ptr, i64 } %12, 1
  store i64 %16, ptr %15, align 8
  %17 = load i32, ptr %5, align 4
  %18 = zext i32 %17 to i64
  %19 = call noundef nonnull align 8 dereferenceable(24) ptr @_ZNK4llvm8ArrayRefINS_16DbgValueLocEntryEEixEm(ptr noundef nonnull align 8 dereferenceable(16) %7, i64 noundef %18)
  %20 = load ptr, ptr %6, align 8
  %21 = call noundef zeroext i1 @"_ZZN4llvm10DwarfDebug17emitDebugLocValueERKNS_10AsmPrinterEPKNS_11DIBasicTypeERKNS_11DbgValueLocERNS_15DwarfExpressionEENK3$_0clERKNS_16DbgValueLocEntryERNS_18DIExpressionCursorE"(ptr noundef nonnull align 8 dereferenceable(24) %9, ptr noundef nonnull align 8 dereferenceable(24) %19, ptr noundef nonnull align 8 dereferenceable(16) %20)
  ret i1 %21
}

; Function Attrs: mustprogress nounwind uwtable
define internal noundef zeroext i1 @"_ZN4llvm12function_refIFbjRNS_18DIExpressionCursorEEE11callback_fnIZNS_10DwarfDebug17emitDebugLocValueERKNS_10AsmPrinterEPKNS_11DIBasicTypeERKNS_11DbgValueLocERNS_15DwarfExpressionEE3$_2EEbljS2_"(i64 noundef %0, i32 noundef %1, ptr noundef nonnull align 8 dereferenceable(16) %2) #1 align 2 {
  %4 = alloca i64, align 8
  %5 = alloca i32, align 4
  %6 = alloca ptr, align 8
  store i64 %0, ptr %4, align 8
  store i32 %1, ptr %5, align 4
  store ptr %2, ptr %6, align 8
  %7 = load i64, ptr %4, align 8
  %8 = inttoptr i64 %7 to ptr
  %9 = load i32, ptr %5, align 4
  %10 = load ptr, ptr %6, align 8
  %11 = call noundef zeroext i1 @"_ZZN4llvm10DwarfDebug17emitDebugLocValueERKNS_10AsmPrinterEPKNS_11DIBasicTypeERKNS_11DbgValueLocERNS_15DwarfExpressionEENK3$_2clEjRNS_18DIExpressionCursorE"(ptr noundef nonnull align 8 dereferenceable(32) %8, i32 noundef %9, ptr noundef nonnull align 8 dereferenceable(16) %10)
  ret i1 %11
}