; Function Attrs: mustprogress nounwind uwtable
define internal noundef zeroext i1 @"_ZN4llvm12function_refIFbjRNS_18DIExpressionCursorEEE11callback_fnIZNS_10DwarfDebug17emitDebugLocValueERKNS_10AsmPrinterEPKNS_11DIBasicTypeERKNS_11DbgValueLocERNS_15DwarfExpressionEE3$_2EEbljS2_"(i64 noundef %0, i32 noundef %1, ptr noundef nonnull align 8 dereferenceable(16) %2) #0 align 2 {
  %4 = inttoptr i64 %0 to ptr
  %5 = getelementptr inbounds nuw i8, ptr %4, i64 24
  %6 = load ptr, ptr %5, align 8
  %7 = getelementptr inbounds nuw i8, ptr %6, i64 8
  %8 = load ptr, ptr %7, align 8
  %9 = tail call noundef i64 @_ZNK4llvm15SmallVectorBaseIjE4sizeEv(ptr noundef nonnull align 8 dereferenceable(16) %7) #27
  %10 = zext i32 %1 to i64
  %11 = getelementptr inbounds nuw %"class.llvm::DbgValueLocEntry", ptr %8, i64 %10
  %12 = tail call fastcc noundef zeroext i1 @"_ZZN4llvm10DwarfDebug17emitDebugLocValueERKNS_10AsmPrinterEPKNS_11DIBasicTypeERKNS_11DbgValueLocERNS_15DwarfExpressionEENK3$_0clERKNS_16DbgValueLocEntryERNS_18DIExpressionCursorE"(ptr noundef nonnull readonly align 8 dereferenceable(32) %4, ptr noundef nonnull align 8 dereferenceable(24) %11, ptr noundef nonnull align 8 dereferenceable(16) %2)
  ret i1 %12
}